; Function Attrs: nounwind uwtable
define void @Gia_Iso2ManUpdate(ptr noundef readonly captures(none) %0, i32 noundef %1) local_unnamed_addr #0 {
  %3 = getelementptr inbounds nuw i8, ptr %0, i64 24
  %4 = load ptr, ptr %3, align 8, !tbaa !46
  %5 = getelementptr i8, ptr %4, i64 4
  %.val14 = load i32, ptr %5, align 4, !tbaa !28
  %6 = icmp sgt i32 %.val14, 0
  br i1 %6, label %.lr.ph, label %.critedge

.lr.ph:                                           ; preds = %2, %10
  %indvars.iv = phi i64 [ %indvars.iv.next, %10 ], [ 0, %2 ]
  %7 = phi ptr [ %19, %10 ], [ %4, %2 ]
  %8 = load ptr, ptr %0, align 8, !tbaa !48
  %9 = getelementptr i8, ptr %8, i64 32
  %.val11 = load ptr, ptr %9, align 8, !tbaa !33
  %.not = icmp eq ptr %.val11, null
  br i1 %.not, label %.critedge, label %10

10:                                               ; preds = %.lr.ph
  %11 = getelementptr i8, ptr %7, i64 8
  %.val12 = load ptr, ptr %11, align 8, !tbaa !32
  %12 = getelementptr inbounds nuw i32, ptr %.val12, i64 %indvars.iv
  %13 = load i32, ptr %12, align 4, !tbaa !34
  %14 = sext i32 %13 to i64
  tail call void @Gia_ManIncrementTravId(ptr noundef nonnull %8) #26
  %15 = tail call i32 @Gia_Iso2ManCone_rec(ptr noundef nonnull %8, i32 noundef %13, i32 noundef %1)
  %16 = getelementptr inbounds %struct.Gia_Obj_t_, ptr %.val11, i64 %14, i32 1
  %17 = load i32, ptr %16, align 4, !tbaa !37
  %18 = add i32 %17, %15
  store i32 %18, ptr %16, align 4, !tbaa !37
  %indvars.iv.next = add nuw nsw i64 %indvars.iv, 1
  %19 = load ptr, ptr %3, align 8, !tbaa !46
  %20 = getelementptr i8, ptr %19, i64 4
  %.val = load i32, ptr %20, align 4, !tbaa !28
  %21 = sext i32 %.val to i64
  %22 = icmp slt i64 %indvars.iv.next, %21
  br i1 %22, label %.lr.ph, label %.critedge, !llvm.loop !49

.critedge:                                        ; preds = %.lr.ph, %10, %2
  ret void
}